Certificate:
    Data:
        Version: 3 (0x2)
        Serial Number:
            fc:f0:72:43:c9:f8:28:6e:5c:98:b2:76:c5:58:2a:de
    Signature Algorithm: sha256WithRSAEncryption
        Issuer: C=US, O=test1, CN=Root CA
        Validity
            Not Before: Dec 25 22:12:28 2018 GMT
            Not After : Dec 22 22:12:28 2028 GMT
        Subject: C=US, O=test1, CN=Root CA
        Subject Public Key Info:
            Public Key Algorithm: rsaEncryption
                Public-Key: (4096 bit)
                Modulus:
                    00:cd:e5:63:f3:fa:a6:fa:27:9d:00:21:4b:f4:e0:
                    1f:11:27:d0:46:9c:aa:e4:22:ff:98:24:5d:7c:03:
                    40:eb:ab:63:bd:e7:f6:74:97:3d:32:8d:ed:aa:0a:
                    1c:d5:d6:b1:5e:05:01:8e:2a:39:d0:54:d3:e5:32:
                    d1:5d:aa:06:c7:9d:51:6a:a8:e4:33:cf:f2:d9:f7:
                    92:1a:e6:5e:aa:12:7b:6d:5d:7a:93:9e:b0:f3:87:
                    c0:39:07:74:ca:42:8b:20:20:5f:85:33:fa:b6:a0:
                    c4:5c:47:20:ab:b8:c3:13:4d:e8:09:78:e5:61:52:
                    77:8c:a7:d3:b4:01:18:51:60:b2:18:73:ba:de:e7:
                    bc:34:82:5e:ab:df:ae:50:1a:65:a1:95:37:53:b6:
                    fd:68:5d:f8:48:98:3d:b9:ae:27:3a:dd:11:48:05:
                    1f:38:5b:bc:78:79:7f:5c:99:a4:d4:1e:f8:72:26:
                    02:76:56:1a:43:ea:5e:c5:ef:82:a6:8f:61:31:88:
                    3b:e5:d0:05:4b:7b:d3:f6:74:c5:39:04:ff:87:75:
                    a3:45:3d:e1:04:0a:7c:a3:cb:86:f8:57:21:8b:72:
                    72:78:fb:13:ff:be:76:ce:33:3e:a2:ac:02:80:99:
                    3e:af:08:cd:46:b5:80:db:bf:69:ec:47:e5:a7:1d:
                    70:ea:06:0f:db:f3:31:64:10:a0:bf:2b:25:15:85:
                    8a:a1:9e:74:14:ec:97:05:1b:0c:9c:b6:50:22:a5:
                    ae:40:77:f6:d4:53:eb:c5:18:b7:19:eb:1f:5e:7d:
                    f5:63:ef:4e:0a:76:e3:95:86:aa:aa:55:d0:38:3a:
                    b8:d4:b1:b1:59:5f:e3:31:eb:6f:19:72:3d:5f:99:
                    45:a7:c9:f4:20:4e:2e:52:67:4c:c1:12:05:b7:cf:
                    49:9a:62:f5:f6:73:32:62:fd:32:97:23:44:70:27:
                    2b:71:79:37:a4:2a:30:e2:13:17:f6:1f:8c:0d:75:
                    49:c7:07:31:52:ff:46:0a:1b:a2:c5:45:ec:5b:7e:
                    00:61:ce:ce:70:f7:95:d5:58:7c:84:dd:a1:59:7d:
                    a2:fc:97:84:5d:ea:a7:73:96:83:e8:64:ff:a6:1f:
                    0f:dc:ca:bf:84:87:11:de:12:99:00:c4:c6:1a:65:
                    4d:4a:ee:3e:85:79:48:70:9a:71:8a:d1:1a:b0:d6:
                    82:90:11:dc:1b:74:8e:0b:6d:78:c1:f0:98:84:c2:
                    9d:8b:7a:a5:e6:ab:c6:4a:fb:d1:23:15:e5:0a:d5:
                    51:50:fa:8b:6a:36:33:c0:26:04:6e:69:af:f9:4f:
                    76:e2:04:fb:40:c5:f7:4a:11:9d:c9:1f:74:97:17:
                    ee:f3:f1
                Exponent: 65537 (0x10001)
        X509v3 extensions:
            X509v3 Basic Constraints: critical
                CA:TRUE
            X509v3 Key Usage: critical
                Certificate Sign, CRL Sign
            X509v3 Subject Key Identifier: 
                E2:15:84:F5:11:87:64:52:14:95:21:8A:E3:68:33:DD:85:81:B4:6C
    Signature Algorithm: sha256WithRSAEncryption
         61:67:66:de:8d:0b:70:3e:0e:b1:83:9b:18:e8:fa:eb:50:f5:
         be:fe:a3:38:26:3c:f1:88:97:2d:32:52:e5:22:77:dc:04:f4:
         c8:94:46:c2:c1:6b:33:78:ab:52:19:cc:07:17:ba:8e:37:4f:
         86:82:a7:ec:2d:f1:a3:ab:b3:a2:06:c7:eb:83:49:68:6c:f7:
         c5:f3:c1:32:e6:c4:4d:53:c4:e2:a2:d3:46:c0:73:02:24:e2:
         a0:1b:e1:2c:41:e0:bd:c8:f8:81:0a:c5:7e:b1:3a:ab:09:7d:
         47:b4:73:2e:14:96:3a:38:76:98:14:ee:59:bf:8b:b7:5b:f3:
         fe:7c:17:8c:76:af:9b:3d:1d:40:10:4a:bd:a2:9c:f9:2f:3e:
         07:fe:74:b2:64:82:9f:d7:ad:8d:5f:30:14:71:0e:eb:bb:38:
         3f:01:49:f2:22:9a:bb:65:fa:f1:6a:07:d8:88:d0:61:34:60:
         7b:ac:52:28:3b:57:4e:39:02:af:1a:3b:73:7d:d9:87:64:32:
         dc:84:50:70:a9:7a:16:00:04:4e:a9:a7:bb:f8:ef:f7:25:5b:
         0b:37:b8:41:ea:27:b0:0c:a7:7f:15:73:28:03:f1:b2:c8:2d:
         b9:47:e7:1e:75:64:1b:a9:8a:aa:16:06:20:0d:1f:18:0e:a4:
         85:22:ad:71:cb:69:47:77:0d:34:e8:62:b8:d7:3f:e4:cb:52:
         4f:04:a0:b0:aa:24:dd:6a:22:85:cc:69:f4:dc:fc:39:6d:e4:
         01:01:82:6a:9e:fa:2c:22:10:b5:a3:cf:35:67:36:0b:8b:38:
         c4:3c:06:5e:c3:15:6f:77:a3:3b:4f:a5:e7:20:a7:0c:b4:b2:
         d5:03:b9:8e:19:a0:f6:61:9a:81:70:5b:ee:6c:b6:04:8b:c6:
         d3:97:d1:4e:45:f5:cb:14:9b:dc:28:02:52:d0:f3:46:20:9a:
         bf:a5:8b:16:73:59:f6:56:be:9a:3c:24:7f:db:f3:2c:54:9a:
         2e:2d:ed:d5:d5:d5:22:7a:a8:89:15:70:53:26:c3:4a:15:e0:
         46:2e:9f:11:41:dd:a7:99:b8:e8:b4:02:a9:61:98:3f:6f:a8:
         02:17:a5:1a:a0:60:63:13:8c:6a:86:d2:9d:3d:8c:98:2c:79:
         25:5b:b9:78:bf:7f:46:28:66:3a:a5:33:da:8d:49:74:c2:e0:
         90:3d:1a:94:97:49:ea:50:82:c8:6c:28:19:75:eb:4e:e2:1d:
         de:39:1a:f9:5d:d4:2f:88:28:0a:df:ae:9d:eb:81:f0:7d:3b:
         a3:ca:fd:be:b9:e7:59:f7:e0:71:b1:cd:ba:36:34:b1:3d:65:
         6a:82:1b:82:4e:0c:b3:22
-----BEGIN CERTIFICATE-----
MIIFKzCCAxOgAwIBAgIRAPzwckPJ+ChuXJiydsVYKt4wDQYJKoZIhvcNAQELBQAw
LzELMAkGA1UEBhMCVVMxDjAMBgNVBAoMBXRlc3QxMRAwDgYDVQQDDAdSb290IENB
MB4XDTE4MTIyNTIyMTIyOFoXDTI4MTIyMjIyMTIyOFowLzELMAkGA1UEBhMCVVMx
DjAMBgNVBAoMBXRlc3QxMRAwDgYDVQQDDAdSb290IENBMIICIjANBgkqhkiG9w0B
AQEFAAOCAg8AMIICCgKCAgEAzeVj8/qm+iedACFL9OAfESfQRpyq5CL/mCRdfANA
66tjvef2dJc9Mo3tqgoc1daxXgUBjio50FTT5TLRXaoGx51RaqjkM8/y2feSGuZe
qhJ7bV16k56w84fAOQd0ykKLICBfhTP6tqDEXEcgq7jDE03oCXjlYVJ3jKfTtAEY
UWCyGHO63ue8NIJeq9+uUBploZU3U7b9aF34SJg9ua4nOt0RSAUfOFu8eHl/XJmk
1B74ciYCdlYaQ+pexe+Cpo9hMYg75dAFS3vT9nTFOQT/h3WjRT3hBAp8o8uG+Fch
i3JyePsT/752zjM+oqwCgJk+rwjNRrWA279p7Eflpx1w6gYP2/MxZBCgvyslFYWK
oZ50FOyXBRsMnLZQIqWuQHf21FPrxRi3GesfXn31Y+9OCnbjlYaqqlXQODq41LGx
WV/jMetvGXI9X5lFp8n0IE4uUmdMwRIFt89JmmL19nMyYv0ylyNEcCcrcXk3pCow
4hMX9h+MDXVJxwcxUv9GChuixUXsW34AYc7OcPeV1Vh8hN2hWX2i/JeEXeqnc5aD
6GT/ph8P3Mq/hIcR3hKZAMTGGmVNSu4+hXlIcJpxitEasNaCkBHcG3SOC214wfCY
hMKdi3ql5qvGSvvRIxXlCtVRUPqLajYzwCYEbmmv+U924gT7QMX3ShGdyR90lxfu
8/ECAwEAAaNCMEAwDwYDVR0TAQH/BAUwAwEB/zAOBgNVHQ8BAf8EBAMCAQYwHQYD
VR0OBBYEFOIVhPURh2RSFJUhiuNoM92FgbRsMA0GCSqGSIb3DQEBCwUAA4ICAQBh
Z2bejQtwPg6xg5sY6PrrUPW+/qM4JjzxiJctMlLlInfcBPTIlEbCwWszeKtSGcwH
F7qON0+GgqfsLfGjq7OiBsfrg0lobPfF88Ey5sRNU8TiotNGwHMCJOKgG+EsQeC9
yPiBCsV+sTqrCX1HtHMuFJY6OHaYFO5Zv4u3W/P+fBeMdq+bPR1AEEq9opz5Lz4H
/nSyZIKf162NXzAUcQ7ruzg/AUnyIpq7ZfrxagfYiNBhNGB7rFIoO1dOOQKvGjtz
fdmHZDLchFBwqXoWAAROqae7+O/3JVsLN7hB6iewDKd/FXMoA/GyyC25R+cedWQb
qYqqFgYgDR8YDqSFIq1xy2lHdw006GK41z/ky1JPBKCwqiTdaiKFzGn03Pw5beQB
AYJqnvosIhC1o881ZzYLizjEPAZewxVvd6M7T6XnIKcMtLLVA7mOGaD2YZqBcFvu
bLYEi8bTl9FORfXLFJvcKAJS0PNGIJq/pYsWc1n2Vr6aPCR/2/MsVJouLe3V1dUi
eqiJFXBTJsNKFeBGLp8RQd2nmbjotAKpYZg/b6gCF6UaoGBjE4xqhtKdPYyYLHkl
W7l4v39GKGY6pTPajUl0wuCQPRqUl0nqUILIbCgZdetO4h3eORr5XdQviCgK366d
64HwfTujyv2+uedZ9+Bxsc26NjSxPWVqghuCTgyzIg==
-----END CERTIFICATE-----

Certificate:
    Data:
        Version: 3 (0x2)
        Serial Number:
            fc:f0:72:43:c9:f8:28:6e:5c:98:b2:76:c5:58:2a:df
    Signature Algorithm: sha256WithRSAEncryption
        Issuer: C=US, O=test1, CN=Root CA
        Validity
            Not Before: Dec 25 22:12:35 2018 GMT
            Not After : Dec 22 22:12:35 2028 GMT
        Subject: C=US, O=test1, CN=Sub CA
        Subject Public Key Info:
            Public Key Algorithm: rsaEncryption
                Public-Key: (2048 bit)
                Modulus:
                    00:cf:1e:6b:39:f5:65:b9:6a:01:13:4d:2d:5e:ac:
                    b4:e6:4e:6e:8e:00:4a:eb:f4:67:d9:b4:75:2a:67:
                    45:aa:f7:c7:73:56:72:e6:f8:b4:5d:74:65:d9:05:
                    3d:c1:4e:9a:67:33:47:8b:10:9f:69:e2:59:b3:d2:
                    a2:e8:9e:9e:33:68:d0:31:88:a0:02:0f:c9:72:9a:
                    35:8a:3b:73:f7:77:39:e8:05:d5:6d:04:20:a5:65:
                    0e:6e:71:a6:2d:44:c4:b2:21:6b:62:bf:cb:8b:64:
                    25:ce:94:a7:dc:b0:86:d9:59:36:1e:f7:3c:11:92:
                    27:7d:d2:c6:19:d0:7d:dc:91:20:e4:62:93:84:44:
                    17:a1:e4:aa:83:ea:1f:96:e9:46:82:22:45:23:91:
                    e5:b6:40:d2:e8:f1:a5:54:93:90:de:e9:92:2e:e2:
                    a9:f0:e5:08:54:af:83:5b:3a:28:fc:0c:81:c9:6f:
                    53:d3:a2:03:a0:cb:0f:36:3b:f2:40:92:9f:42:60:
                    a2:1a:9d:cb:d0:a2:1f:44:4b:14:fd:20:92:47:1a:
                    19:d0:c3:e8:8b:2e:51:13:f6:9c:7a:95:b2:16:a3:
                    87:8f:1e:fc:c2:43:55:2e:c9:7e:bc:7b:0d:2f:91:
                    a8:b3:e5:82:57:ac:dc:89:65:0a:ad:85:44:02:5c:
                    77:5f
                Exponent: 65537 (0x10001)
        X509v3 extensions:
            Authority Information Access: 
                CA Issuers - URI:http://root-ca.testpdk.io/root-ca.crt
                OCSP - URI:http://ocsp.root-ca.testpdk.io:9080

            X509v3 Authority Key Identifier: 
                keyid:E2:15:84:F5:11:87:64:52:14:95:21:8A:E3:68:33:DD:85:81:B4:6C

            X509v3 Basic Constraints: critical
                CA:TRUE, pathlen:0
            X509v3 CRL Distribution Points: 

                Full Name:
                  URI:http://root-ca.testpdk.io/root-ca.crl

            X509v3 Extended Key Usage: 
                TLS Web Client Authentication, TLS Web Server Authentication
            X509v3 Key Usage: critical
                Certificate Sign, CRL Sign
            X509v3 Name Constraints: 
                Permitted:
                  DNS:testpdk.io
                Excluded:
                  IP:0.0.0.0/0.0.0.0
                  IP:0:0:0:0:0:0:0:0/0:0:0:0:0:0:0:0

            X509v3 Subject Key Identifier: 
                05:7C:A7:98:3C:2E:8D:EC:2F:1B:73:0F:04:95:27:6C:6C:57:D4:07
    Signature Algorithm: sha256WithRSAEncryption
         b2:f0:09:6d:b5:2b:20:1a:af:38:c3:42:f3:cc:b1:fe:2d:65:
         77:e5:a6:f7:e6:9a:3e:02:6a:3d:38:18:f6:66:11:64:49:0a:
         c0:65:22:24:01:f6:0b:57:e6:41:bf:82:f4:f7:9f:34:ed:af:
         41:e3:dd:99:9d:af:11:d6:21:3d:9e:1d:ee:16:b6:0e:86:9c:
         5c:b0:9d:a7:13:3c:4d:35:31:d9:78:ca:af:53:db:31:94:ca:
         eb:47:00:1a:ca:15:61:d1:db:94:29:40:8e:b4:69:61:a6:35:
         24:62:83:9f:52:fe:14:33:34:0f:61:86:ef:49:f8:cf:55:9d:
         12:e1:6e:ab:3f:49:e2:3f:d5:07:ee:c1:08:8c:da:d8:20:ee:
         9d:d4:32:08:c9:0f:50:c3:63:f2:37:70:96:66:f7:f7:e9:6e:
         8a:75:cc:73:5e:bf:d6:52:62:d7:3a:1f:af:fe:fd:ca:77:12:
         f8:11:77:b5:8c:76:f8:e1:87:ce:5b:86:33:04:c6:1b:6f:1b:
         d0:44:6a:1a:04:ae:67:c2:05:ad:13:69:94:da:8c:d1:24:a3:
         7c:34:4a:71:fe:fd:13:da:b9:e4:d0:97:02:c0:15:a0:66:c0:
         b5:e0:c8:cc:6e:32:6b:ee:04:7c:75:8d:1c:17:ea:2c:cf:66:
         c5:08:eb:82:8f:d9:fe:fd:22:cf:59:eb:d4:d9:fb:d4:be:6c:
         7d:65:91:d8:ed:38:31:6a:cd:57:18:f5:48:10:c7:93:13:bd:
         ca:c7:1e:44:cd:13:be:14:b9:e1:a6:75:c2:f8:7f:cc:34:e7:
         e4:89:ec:29:46:ce:83:47:e3:5c:e2:c3:53:0d:a8:c5:4e:66:
         0e:e0:b8:70:9e:03:23:49:c7:e6:bb:57:e0:1d:ac:f8:be:82:
         9d:2a:5c:39:1d:cc:71:d1:1a:26:07:3f:95:bf:28:65:d1:3c:
         cc:d9:8e:52:35:07:a2:f9:0b:03:5c:65:e6:38:70:19:6e:b8:
         7d:12:19:d4:33:28:ef:8a:30:06:a5:8c:b3:2b:3b:d9:b1:f9:
         57:81:8d:7d:85:be:d2:29:ef:82:81:a8:13:d5:9b:a1:4a:70:
         6f:1e:46:a2:47:b8:4e:00:64:eb:73:aa:b9:4d:74:0c:ea:ba:
         6d:e1:15:38:44:70:b5:df:1f:1c:6a:4e:cd:09:50:0e:0c:c6:
         45:ed:4a:f9:fe:0d:cd:da:9a:19:07:c1:a1:ce:84:d9:44:3d:
         8c:9d:16:ce:a7:54:92:dc:95:1c:b1:00:85:4b:ce:5d:d4:83:
         a6:72:52:ac:9b:32:29:8a:91:6b:3a:e0:d4:8f:13:7b:a1:51:
         0d:81:c4:88:cb:82:f2:e8
-----BEGIN CERTIFICATE-----
MIIFajCCA1KgAwIBAgIRAPzwckPJ+ChuXJiydsVYKt8wDQYJKoZIhvcNAQELBQAw
LzELMAkGA1UEBhMCVVMxDjAMBgNVBAoMBXRlc3QxMRAwDgYDVQQDDAdSb290IENB
MB4XDTE4MTIyNTIyMTIzNVoXDTI4MTIyMjIyMTIzNVowLjELMAkGA1UEBhMCVVMx
DjAMBgNVBAoMBXRlc3QxMQ8wDQYDVQQDDAZTdWIgQ0EwggEiMA0GCSqGSIb3DQEB
AQUAA4IBDwAwggEKAoIBAQDPHms59WW5agETTS1erLTmTm6OAErr9GfZtHUqZ0Wq
98dzVnLm+LRddGXZBT3BTppnM0eLEJ9p4lmz0qLonp4zaNAxiKACD8lymjWKO3P3
dznoBdVtBCClZQ5ucaYtRMSyIWtiv8uLZCXOlKfcsIbZWTYe9zwRkid90sYZ0H3c
kSDkYpOERBeh5KqD6h+W6UaCIkUjkeW2QNLo8aVUk5De6ZIu4qnw5QhUr4NbOij8
DIHJb1PTogOgyw82O/JAkp9CYKIancvQoh9ESxT9IJJHGhnQw+iLLlET9px6lbIW
o4ePHvzCQ1UuyX68ew0vkaiz5YJXrNyJZQqthUQCXHdfAgMBAAGjggGAMIIBfDBy
BggrBgEFBQcBAQRmMGQwMQYIKwYBBQUHMAKGJWh0dHA6Ly9yb290LWNhLnRlc3Rw
ZGsuaW8vcm9vdC1jYS5jcnQwLwYIKwYBBQUHMAGGI2h0dHA6Ly9vY3NwLnJvb3Qt
Y2EudGVzdHBkay5pbzo5MDgwMB8GA1UdIwQYMBaAFOIVhPURh2RSFJUhiuNoM92F
gbRsMBIGA1UdEwEB/wQIMAYBAf8CAQAwNgYDVR0fBC8wLTAroCmgJ4YlaHR0cDov
L3Jvb3QtY2EudGVzdHBkay5pby9yb290LWNhLmNybDAdBgNVHSUEFjAUBggrBgEF
BQcDAgYIKwYBBQUHAwEwDgYDVR0PAQH/BAQDAgEGMEsGA1UdHgREMEKgDjAMggp0
ZXN0cGRrLmlvoTAwCocIAAAAAAAAAAAwIocgAAAAAAAAAAAAAAAAAAAAAAAAAAAA
AAAAAAAAAAAAAAAwHQYDVR0OBBYEFAV8p5g8Lo3sLxtzDwSVJ2xsV9QHMA0GCSqG
SIb3DQEBCwUAA4ICAQCy8AlttSsgGq84w0LzzLH+LWV35ab35po+Amo9OBj2ZhFk
SQrAZSIkAfYLV+ZBv4L095807a9B492Zna8R1iE9nh3uFrYOhpxcsJ2nEzxNNTHZ
eMqvU9sxlMrrRwAayhVh0duUKUCOtGlhpjUkYoOfUv4UMzQPYYbvSfjPVZ0S4W6r
P0niP9UH7sEIjNrYIO6d1DIIyQ9Qw2PyN3CWZvf36W6KdcxzXr/WUmLXOh+v/v3K
dxL4EXe1jHb44YfOW4YzBMYbbxvQRGoaBK5nwgWtE2mU2ozRJKN8NEpx/v0T2rnk
0JcCwBWgZsC14MjMbjJr7gR8dY0cF+osz2bFCOuCj9n+/SLPWevU2fvUvmx9ZZHY
7Tgxas1XGPVIEMeTE73Kxx5EzRO+FLnhpnXC+H/MNOfkiewpRs6DR+Nc4sNTDajF
TmYO4LhwngMjScfmu1fgHaz4voKdKlw5Hcxx0RomBz+Vvyhl0TzM2Y5SNQei+QsD
XGXmOHAZbrh9EhnUMyjvijAGpYyzKzvZsflXgY19hb7SKe+CgagT1ZuhSnBvHkai
R7hOAGTrc6q5TXQM6rpt4RU4RHC13x8cak7NCVAODMZF7Ur5/g3N2poZB8GhzoTZ
RD2MnRbOp1SS3JUcsQCFS85d1IOmclKsmzIpipFrOuDUjxN7oVENgcSIy4Ly6A==
-----END CERTIFICATE-----
